; Function Attrs: mustprogress nounwind uwtable
define void @_ZNK5faiss11Index2Layer9sa_decodeElPKhPf(ptr noundef nonnull align 8 dereferenceable(384) %0, i64 noundef %1, ptr noundef %2, ptr noundef %3) unnamed_addr #0 align 2 {
  %5 = alloca i64, align 8
  %6 = alloca ptr, align 8
  %7 = alloca ptr, align 8
  store i64 %1, ptr %5, align 8, !tbaa !4
  store ptr %2, ptr %6, align 8, !tbaa !62
  store ptr %3, ptr %7, align 8, !tbaa !63
  call void (ptr, i32, ptr, ...) @__kmpc_fork_call(ptr nonnull @3, i32 4, ptr nonnull @_ZNK5faiss11Index2Layer9sa_decodeElPKhPf.omp_outlined, ptr nonnull %0, ptr nonnull %5, ptr nonnull %6, ptr nonnull %7)
  ret void
}